target datalayout = "e-m:e-p270:32:32-p271:32:32-p272:64:64-i64:64-i128:128-f80:128-n8:16:32:64-S128"
target triple = "x86_64-pc-linux-gnu"

%"class.testing::AssertionResult" = type { i8, %"class.std::unique_ptr" }
%"class.std::unique_ptr" = type { %"struct.std::__uniq_ptr_data" }
%"struct.std::__uniq_ptr_data" = type { %"class.std::__uniq_ptr_impl" }
%"class.std::__uniq_ptr_impl" = type { %"class.std::tuple" }
%"class.std::tuple" = type { %"struct.std::_Tuple_impl" }
%"struct.std::_Tuple_impl" = type { %"struct.std::_Head_base.1" }
%"struct.std::_Head_base.1" = type { ptr }

@.str.180 = private unnamed_addr constant [12 x i8] c"Expected: (\00", align 1
@.str.181 = private unnamed_addr constant [7 x i8] c") != (\00", align 1
@.str.183 = private unnamed_addr constant [7 x i8] c"\22 vs \22\00", align 1
@.str.184 = private unnamed_addr constant [2 x i8] c"\22\00", align 1
@.str.185 = private unnamed_addr constant [29 x i8] c") (ignoring case), actual: \22\00", align 1
@_ZN7testing15AssertionResultC1ERKS0_ = dso_local unnamed_addr alias void (ptr, ptr), ptr @_ZN7testing15AssertionResultC2ERKS0_

; Function Attrs: mustprogress nounwind uwtable
define linkonce_odr dso_local void @_ZNSt10_Head_baseILm1ESt14default_deleteINSt7__cxx1112basic_stringIcSt11char_traitsIcESaIcEEEELb1EEC2Ev(ptr noundef nonnull align 1 dereferenceable(1) %0) unnamed_addr #7 comdat align 2 {
  %2 = alloca ptr, align 8
  store ptr %0, ptr %2, align 8, !tbaa !952
  ret void
}

; Function Attrs: mustprogress nounwind uwtable
define linkonce_odr dso_local void @_ZNSt10_Head_baseILm0EPNSt7__cxx1112basic_stringIcSt11char_traitsIcESaIcEEELb0EEC2Ev(ptr noundef nonnull align 8 dereferenceable(8) %0) unnamed_addr #7 comdat align 2 {
  %2 = alloca ptr, align 8
  store ptr %0, ptr %2, align 8, !tbaa !948
  %3 = load ptr, ptr %2, align 8
  %4 = getelementptr inbounds nuw %"struct.std::_Head_base.1", ptr %3, i32 0, i32 0
  store ptr null, ptr %4, align 8, !tbaa !1626
  ret void
}

; Function Attrs: mustprogress uwtable
define linkonce_odr dso_local void @_ZNSt11_Tuple_implILm1EJSt14default_deleteINSt7__cxx1112basic_stringIcSt11char_traitsIcESaIcEEEEEEC2Ev(ptr noundef nonnull align 1 dereferenceable(1) %0) unnamed_addr #4 comdat align 2 {
  %2 = alloca ptr, align 8
  store ptr %0, ptr %2, align 8, !tbaa !950
  %3 = load ptr, ptr %2, align 8
  call void @_ZNSt10_Head_baseILm1ESt14default_deleteINSt7__cxx1112basic_stringIcSt11char_traitsIcESaIcEEEELb1EEC2Ev(ptr noundef nonnull align 1 dereferenceable(1) %3)
  ret void
}

; Function Attrs: noinline noreturn nounwind uwtable
define linkonce_odr hidden void @__clang_call_terminate(ptr noundef %0) #17 comdat {
  %2 = call ptr @__cxa_begin_catch(ptr %0) #3
  call void @_ZSt9terminatev() #33
  unreachable
}

; Function Attrs: mustprogress uwtable
define linkonce_odr dso_local void @_ZNSt11_Tuple_implILm0EJPNSt7__cxx1112basic_stringIcSt11char_traitsIcESaIcEEESt14default_deleteIS5_EEEC2Ev(ptr noundef nonnull align 8 dereferenceable(8) %0) unnamed_addr #4 comdat align 2 {
  %2 = alloca ptr, align 8
  store ptr %0, ptr %2, align 8, !tbaa !946
  %3 = load ptr, ptr %2, align 8
  call void @_ZNSt11_Tuple_implILm1EJSt14default_deleteINSt7__cxx1112basic_stringIcSt11char_traitsIcESaIcEEEEEEC2Ev(ptr noundef nonnull align 1 dereferenceable(1) %3)
  call void @_ZNSt10_Head_baseILm0EPNSt7__cxx1112basic_stringIcSt11char_traitsIcESaIcEEELb0EEC2Ev(ptr noundef nonnull align 8 dereferenceable(8) %3)
  ret void
}

; Function Attrs: mustprogress nounwind uwtable
define linkonce_odr dso_local void @_ZNSt5tupleIJPNSt7__cxx1112basic_stringIcSt11char_traitsIcESaIcEEESt14default_deleteIS5_EEEC2ILb1ETnNSt9enable_ifIXclsr17_TupleConstraintsIXT_ES6_S8_EE37__is_implicitly_default_constructibleEEbE4typeELb1EEEv(ptr noundef nonnull align 8 dereferenceable(8) %0) unnamed_addr #7 comdat align 2 personality ptr @__gxx_personality_v0 {
  %2 = alloca ptr, align 8
  store ptr %0, ptr %2, align 8, !tbaa !944
  %3 = load ptr, ptr %2, align 8
  invoke void @_ZNSt11_Tuple_implILm0EJPNSt7__cxx1112basic_stringIcSt11char_traitsIcESaIcEEESt14default_deleteIS5_EEEC2Ev(ptr noundef nonnull align 8 dereferenceable(8) %3)
          to label %4 unwind label %5

4:                                                ; preds = %1
  ret void

5:                                                ; preds = %1
  %6 = landingpad { ptr, i32 }
          catch ptr null
  %7 = extractvalue { ptr, i32 } %6, 0
  call void @__clang_call_terminate(ptr %7) #33
  unreachable
}

; Function Attrs: mustprogress nounwind uwtable
define linkonce_odr dso_local void @_ZNSt15__uniq_ptr_implINSt7__cxx1112basic_stringIcSt11char_traitsIcESaIcEEESt14default_deleteIS5_EEC2Ev(ptr noundef nonnull align 8 dereferenceable(8) %0) unnamed_addr #7 comdat align 2 {
  %2 = alloca ptr, align 8
  store ptr %0, ptr %2, align 8, !tbaa !940
  %3 = load ptr, ptr %2, align 8
  %4 = getelementptr inbounds nuw %"class.std::__uniq_ptr_impl", ptr %3, i32 0, i32 0
  call void @_ZNSt5tupleIJPNSt7__cxx1112basic_stringIcSt11char_traitsIcESaIcEEESt14default_deleteIS5_EEEC2ILb1ETnNSt9enable_ifIXclsr17_TupleConstraintsIXT_ES6_S8_EE37__is_implicitly_default_constructibleEEbE4typeELb1EEEv(ptr noundef nonnull align 8 dereferenceable(8) %4) #3
  ret void
}

; Function Attrs: inlinehint mustprogress nounwind uwtable
define linkonce_odr dso_local void @_ZNSt15__uniq_ptr_dataINSt7__cxx1112basic_stringIcSt11char_traitsIcESaIcEEESt14default_deleteIS5_ELb1ELb1EEC2Ev(ptr noundef nonnull align 8 dereferenceable(8) %0) unnamed_addr #5 comdat align 2 {
  %2 = alloca ptr, align 8
  store ptr %0, ptr %2, align 8, !tbaa !1176
  %3 = load ptr, ptr %2, align 8
  call void @_ZNSt15__uniq_ptr_implINSt7__cxx1112basic_stringIcSt11char_traitsIcESaIcEEESt14default_deleteIS5_EEC2Ev(ptr noundef nonnull align 8 dereferenceable(8) %3) #3
  ret void
}

; Function Attrs: mustprogress nounwind uwtable
define linkonce_odr dso_local void @_ZNSt10unique_ptrINSt7__cxx1112basic_stringIcSt11char_traitsIcESaIcEEESt14default_deleteIS5_EEC2IS7_vEEv(ptr noundef nonnull align 8 dereferenceable(8) %0) unnamed_addr #7 comdat align 2 {
  %2 = alloca ptr, align 8
  store ptr %0, ptr %2, align 8, !tbaa !21
  %3 = load ptr, ptr %2, align 8
  %4 = getelementptr inbounds nuw %"class.std::unique_ptr", ptr %3, i32 0, i32 0
  call void @llvm.memset.p0.i64(ptr align 8 %4, i8 0, i64 8, i1 false)
  call void @_ZNSt15__uniq_ptr_dataINSt7__cxx1112basic_stringIcSt11char_traitsIcESaIcEEESt14default_deleteIS5_ELb1ELb1EEC2Ev(ptr noundef nonnull align 8 dereferenceable(8) %4) #3
  ret void
}

; Function Attrs: mustprogress nounwind uwtable
define linkonce_odr dso_local void @_ZN7testing15AssertionResultC2IbEERKT_PNSt9enable_ifIXntsr3std14is_convertibleIS2_S0_EE5valueEvE4typeE(ptr noundef nonnull align 8 dereferenceable(16) %0, ptr noundef nonnull align 1 dereferenceable(1) %1, ptr noundef %2) unnamed_addr #7 comdat align 2 {
  %4 = alloca ptr, align 8
  %5 = alloca ptr, align 8
  %6 = alloca ptr, align 8
  store ptr %0, ptr %4, align 8, !tbaa !4
  store ptr %1, ptr %5, align 8, !tbaa !26
  store ptr %2, ptr %6, align 8, !tbaa !29
  %7 = load ptr, ptr %4, align 8
  %8 = getelementptr inbounds nuw %"class.testing::AssertionResult", ptr %7, i32 0, i32 0
  %9 = load ptr, ptr %5, align 8, !tbaa !26
  %10 = load i8, ptr %9, align 1, !tbaa !28, !range !19, !noundef !20
  %11 = trunc i8 %10 to i1
  %12 = zext i1 %11 to i8
  store i8 %12, ptr %8, align 8, !tbaa !9
  %13 = getelementptr inbounds nuw %"class.testing::AssertionResult", ptr %7, i32 0, i32 1
  call void @_ZNSt10unique_ptrINSt7__cxx1112basic_stringIcSt11char_traitsIcESaIcEEESt14default_deleteIS5_EEC2IS7_vEEv(ptr noundef nonnull align 8 dereferenceable(8) %13) #3
  ret void
}

; Function Attrs: inlinehint mustprogress nounwind uwtable
define linkonce_odr dso_local noundef i32 @_ZN7testing8internal5posix10StrCaseCmpEPKcS3_(ptr noundef %0, ptr noundef %1) #5 comdat {
  %3 = alloca ptr, align 8
  %4 = alloca ptr, align 8
  store ptr %0, ptr %3, align 8, !tbaa !32
  store ptr %1, ptr %4, align 8, !tbaa !32
  %5 = load ptr, ptr %3, align 8, !tbaa !32
  %6 = load ptr, ptr %4, align 8, !tbaa !32
  %7 = call i32 @strcasecmp(ptr noundef %5, ptr noundef %6) #28
  ret i32 %7
}

; Function Attrs: mustprogress uwtable
define dso_local void @_ZN7testing16AssertionFailureEv(ptr dead_on_unwind noalias writable sret(%"class.testing::AssertionResult") align 8 %0) #4 {
  %2 = alloca ptr, align 8
  %3 = alloca i8, align 1
  store ptr %0, ptr %2, align 8
  call void @llvm.lifetime.start.p0(i64 1, ptr %3) #3
  store i8 0, ptr %3, align 1, !tbaa !28
  call void @_ZN7testing15AssertionResultC2IbEERKT_PNSt9enable_ifIXntsr3std14is_convertibleIS2_S0_EE5valueEvE4typeE(ptr noundef nonnull align 8 dereferenceable(16) %0, ptr noundef nonnull align 1 dereferenceable(1) %3, ptr noundef null)
  call void @llvm.lifetime.end.p0(i64 1, ptr %3) #3
  ret void
}

; Function Attrs: mustprogress uwtable
define dso_local void @_ZN7testing16AssertionSuccessEv(ptr dead_on_unwind noalias writable sret(%"class.testing::AssertionResult") align 8 %0) #4 {
  %2 = alloca ptr, align 8
  %3 = alloca i8, align 1
  store ptr %0, ptr %2, align 8
  call void @llvm.lifetime.start.p0(i64 1, ptr %3) #3
  store i8 1, ptr %3, align 1, !tbaa !28
  call void @_ZN7testing15AssertionResultC2IbEERKT_PNSt9enable_ifIXntsr3std14is_convertibleIS2_S0_EE5valueEvE4typeE(ptr noundef nonnull align 8 dereferenceable(16) %0, ptr noundef nonnull align 1 dereferenceable(1) %3, ptr noundef null)
  call void @llvm.lifetime.end.p0(i64 1, ptr %3) #3
  ret void
}

; Function Attrs: mustprogress uwtable
define dso_local noundef zeroext i1 @_ZN7testing8internal6String28CaseInsensitiveCStringEqualsEPKcS3_(ptr noundef %0, ptr noundef %1) #4 align 2 {
  %3 = alloca i1, align 1
  %4 = alloca ptr, align 8
  %5 = alloca ptr, align 8
  store ptr %0, ptr %4, align 8, !tbaa !32
  store ptr %1, ptr %5, align 8, !tbaa !32
  %6 = load ptr, ptr %4, align 8, !tbaa !32
  %7 = icmp eq ptr %6, null
  br i1 %7, label %8, label %11

8:                                                ; preds = %2
  %9 = load ptr, ptr %5, align 8, !tbaa !32
  %10 = icmp eq ptr %9, null
  store i1 %10, ptr %3, align 1
  br label %20

11:                                               ; preds = %2
  %12 = load ptr, ptr %5, align 8, !tbaa !32
  %13 = icmp eq ptr %12, null
  br i1 %13, label %14, label %15

14:                                               ; preds = %11
  store i1 false, ptr %3, align 1
  br label %20

15:                                               ; preds = %11
  %16 = load ptr, ptr %4, align 8, !tbaa !32
  %17 = load ptr, ptr %5, align 8, !tbaa !32
  %18 = call noundef i32 @_ZN7testing8internal5posix10StrCaseCmpEPKcS3_(ptr noundef %16, ptr noundef %17)
  %19 = icmp eq i32 %18, 0
  store i1 %19, ptr %3, align 1
  br label %20

20:                                               ; preds = %15, %14, %8
  %21 = load i1, ptr %3, align 1
  ret i1 %21
}

; Function Attrs: mustprogress uwtable
define dso_local void @_ZN7testing8internal18CmpHelperSTRCASENEEPKcS2_S2_S2_(ptr dead_on_unwind noalias writable sret(%"class.testing::AssertionResult") align 8 %0, ptr noundef %1, ptr noundef %2, ptr noundef %3, ptr noundef %4) #4 personality ptr @__gxx_personality_v0 {
  %6 = alloca ptr, align 8
  %7 = alloca ptr, align 8
  %8 = alloca ptr, align 8
  %9 = alloca ptr, align 8
  %10 = alloca ptr, align 8
  %11 = alloca %"class.testing::AssertionResult", align 8
  %12 = alloca ptr, align 8
  %13 = alloca i32, align 4
  store ptr %0, ptr %6, align 8
  store ptr %1, ptr %7, align 8, !tbaa !32
  store ptr %2, ptr %8, align 8, !tbaa !32
  store ptr %3, ptr %9, align 8, !tbaa !32
  store ptr %4, ptr %10, align 8, !tbaa !32
  %14 = load ptr, ptr %9, align 8, !tbaa !32
  %15 = load ptr, ptr %10, align 8, !tbaa !32
  %16 = call noundef zeroext i1 @_ZN7testing8internal6String28CaseInsensitiveCStringEqualsEPKcS3_(ptr noundef %14, ptr noundef %15)
  br i1 %16, label %18, label %17

17:                                               ; preds = %5
  call void @_ZN7testing16AssertionSuccessEv(ptr dead_on_unwind writable sret(%"class.testing::AssertionResult") align 8 %0)
  br label %42

18:                                               ; preds = %5
  call void @llvm.lifetime.start.p0(i64 16, ptr %11) #3
  call void @_ZN7testing16AssertionFailureEv(ptr dead_on_unwind writable sret(%"class.testing::AssertionResult") align 8 %11)
  %19 = invoke noundef nonnull align 8 dereferenceable(16) ptr @_ZN7testing15AssertionResultlsIA12_cEERS0_RKT_(ptr noundef nonnull align 8 dereferenceable(16) %11, ptr noundef nonnull align 1 dereferenceable(12) @.str.180)
          to label %20 unwind label %38

20:                                               ; preds = %18
  %21 = invoke noundef nonnull align 8 dereferenceable(16) ptr @_ZN7testing15AssertionResultlsIPKcEERS0_RKT_(ptr noundef nonnull align 8 dereferenceable(16) %19, ptr noundef nonnull align 8 dereferenceable(8) %7)
          to label %22 unwind label %38

22:                                               ; preds = %20
  %23 = invoke noundef nonnull align 8 dereferenceable(16) ptr @_ZN7testing15AssertionResultlsIA7_cEERS0_RKT_(ptr noundef nonnull align 8 dereferenceable(16) %21, ptr noundef nonnull align 1 dereferenceable(7) @.str.181)
          to label %24 unwind label %38

24:                                               ; preds = %22
  %25 = invoke noundef nonnull align 8 dereferenceable(16) ptr @_ZN7testing15AssertionResultlsIPKcEERS0_RKT_(ptr noundef nonnull align 8 dereferenceable(16) %23, ptr noundef nonnull align 8 dereferenceable(8) %8)
          to label %26 unwind label %38

26:                                               ; preds = %24
  %27 = invoke noundef nonnull align 8 dereferenceable(16) ptr @_ZN7testing15AssertionResultlsIA29_cEERS0_RKT_(ptr noundef nonnull align 8 dereferenceable(16) %25, ptr noundef nonnull align 1 dereferenceable(29) @.str.185)
          to label %28 unwind label %38

28:                                               ; preds = %26
  %29 = invoke noundef nonnull align 8 dereferenceable(16) ptr @_ZN7testing15AssertionResultlsIPKcEERS0_RKT_(ptr noundef nonnull align 8 dereferenceable(16) %27, ptr noundef nonnull align 8 dereferenceable(8) %9)
          to label %30 unwind label %38

30:                                               ; preds = %28
  %31 = invoke noundef nonnull align 8 dereferenceable(16) ptr @_ZN7testing15AssertionResultlsIA7_cEERS0_RKT_(ptr noundef nonnull align 8 dereferenceable(16) %29, ptr noundef nonnull align 1 dereferenceable(7) @.str.183)
          to label %32 unwind label %38

32:                                               ; preds = %30
  %33 = invoke noundef nonnull align 8 dereferenceable(16) ptr @_ZN7testing15AssertionResultlsIPKcEERS0_RKT_(ptr noundef nonnull align 8 dereferenceable(16) %31, ptr noundef nonnull align 8 dereferenceable(8) %10)
          to label %34 unwind label %38

34:                                               ; preds = %32
  %35 = invoke noundef nonnull align 8 dereferenceable(16) ptr @_ZN7testing15AssertionResultlsIA2_cEERS0_RKT_(ptr noundef nonnull align 8 dereferenceable(16) %33, ptr noundef nonnull align 1 dereferenceable(2) @.str.184)
          to label %36 unwind label %38

36:                                               ; preds = %34
  invoke void @_ZN7testing15AssertionResultC1ERKS0_(ptr noundef nonnull align 8 dereferenceable(16) %0, ptr noundef nonnull align 8 dereferenceable(16) %35)
          to label %37 unwind label %38

37:                                               ; preds = %36
  call void @_ZN7testing15AssertionResultD2Ev(ptr noundef nonnull align 8 dereferenceable(16) %11) #3
  call void @llvm.lifetime.end.p0(i64 16, ptr %11) #3
  br label %42

38:                                               ; preds = %36, %34, %32, %30, %28, %26, %24, %22, %20, %18
  %39 = landingpad { ptr, i32 }
          cleanup
  %40 = extractvalue { ptr, i32 } %39, 0
  store ptr %40, ptr %12, align 8
  %41 = extractvalue { ptr, i32 } %39, 1
  store i32 %41, ptr %13, align 4
  call void @_ZN7testing15AssertionResultD2Ev(ptr noundef nonnull align 8 dereferenceable(16) %11) #3
  call void @llvm.lifetime.end.p0(i64 16, ptr %11) #3
  br label %43

42:                                               ; preds = %37, %17
  ret void

43:                                               ; preds = %38
  %44 = load ptr, ptr %12, align 8
  %45 = load i32, ptr %13, align 4
  %46 = insertvalue { ptr, i32 } poison, ptr %44, 0
  %47 = insertvalue { ptr, i32 } %46, i32 %45, 1
  resume { ptr, i32 } %47
}