; Function Attrs: mustprogress uwtable
define dso_local void @_ZN7testing8internal18CmpHelperSTRCASENEEPKcS2_S2_S2_(ptr dead_on_unwind noalias writable writeonly sret(%"class.testing::AssertionResult") align 8 captures(none) %0, ptr noundef %1, ptr noundef %2, ptr noundef %3, ptr noundef %4) local_unnamed_addr #3 personality ptr @__gxx_personality_v0 {
  %6 = alloca i64, align 8
  %7 = alloca ptr, align 8
  %8 = alloca ptr, align 8
  %9 = alloca ptr, align 8
  %10 = alloca ptr, align 8
  %11 = alloca %"class.testing::AssertionResult", align 8
  store ptr %1, ptr %7, align 8, !tbaa !314
  store ptr %2, ptr %8, align 8, !tbaa !314
  store ptr %3, ptr %9, align 8, !tbaa !314
  store ptr %4, ptr %10, align 8, !tbaa !314
  %12 = icmp eq ptr %3, null
  %13 = icmp eq ptr %4, null
  %brmerge.i = or i1 %12, %13
  br i1 %brmerge.i, label %_ZN7testing8internal6String28CaseInsensitiveCStringEqualsEPKcS3_.exit, label %14

14:                                               ; preds = %5
  %15 = tail call noundef i32 @strcasecmp(ptr noundef nonnull readonly %3, ptr noundef nonnull readonly %4) #64
  %16 = icmp eq i32 %15, 0
  br i1 %16, label %19, label %17

_ZN7testing8internal6String28CaseInsensitiveCStringEqualsEPKcS3_.exit: ; preds = %5
  %.mux.i = and i1 %12, %13
  br i1 %.mux.i, label %19, label %17

17:                                               ; preds = %14, %_ZN7testing8internal6String28CaseInsensitiveCStringEqualsEPKcS3_.exit
  store i8 1, ptr %0, align 8, !tbaa !4, !alias.scope !879
  %18 = getelementptr inbounds nuw i8, ptr %0, i64 8
  store ptr null, ptr %18, align 8, !tbaa !30, !alias.scope !879
  br label %76

19:                                               ; preds = %14, %_ZN7testing8internal6String28CaseInsensitiveCStringEqualsEPKcS3_.exit
  call void @llvm.lifetime.start.p0(i64 16, ptr nonnull %11) #57
  store i8 0, ptr %11, align 8, !tbaa !4, !alias.scope !882
  %20 = getelementptr inbounds nuw i8, ptr %11, i64 8
  store ptr null, ptr %20, align 8, !tbaa !30, !alias.scope !882
  %21 = invoke noundef nonnull align 8 dereferenceable(16) ptr @_ZN7testing15AssertionResultlsIA12_cEERS0_RKT_(ptr noundef nonnull align 8 dereferenceable(16) %11, ptr noundef nonnull align 1 dereferenceable(12) @.str.180)
          to label %22 unwind label %74

22:                                               ; preds = %19
  %23 = invoke noundef nonnull align 8 dereferenceable(16) ptr @_ZN7testing15AssertionResultlsIPKcEERS0_RKT_(ptr noundef nonnull align 8 dereferenceable(16) %21, ptr noundef nonnull align 8 dereferenceable(8) %7)
          to label %24 unwind label %74

24:                                               ; preds = %22
  %25 = invoke noundef nonnull align 8 dereferenceable(16) ptr @_ZN7testing15AssertionResultlsIA7_cEERS0_RKT_(ptr noundef nonnull align 8 dereferenceable(16) %23, ptr noundef nonnull align 1 dereferenceable(7) @.str.181)
          to label %26 unwind label %74

26:                                               ; preds = %24
  %27 = invoke noundef nonnull align 8 dereferenceable(16) ptr @_ZN7testing15AssertionResultlsIPKcEERS0_RKT_(ptr noundef nonnull align 8 dereferenceable(16) %25, ptr noundef nonnull align 8 dereferenceable(8) %8)
          to label %28 unwind label %74

28:                                               ; preds = %26
  %29 = invoke noundef nonnull align 8 dereferenceable(16) ptr @_ZN7testing15AssertionResultlsIA29_cEERS0_RKT_(ptr noundef nonnull align 8 dereferenceable(16) %27, ptr noundef nonnull align 1 dereferenceable(29) @.str.185)
          to label %30 unwind label %74

30:                                               ; preds = %28
  %31 = invoke noundef nonnull align 8 dereferenceable(16) ptr @_ZN7testing15AssertionResultlsIPKcEERS0_RKT_(ptr noundef nonnull align 8 dereferenceable(16) %29, ptr noundef nonnull align 8 dereferenceable(8) %9)
          to label %32 unwind label %74

32:                                               ; preds = %30
  %33 = invoke noundef nonnull align 8 dereferenceable(16) ptr @_ZN7testing15AssertionResultlsIA7_cEERS0_RKT_(ptr noundef nonnull align 8 dereferenceable(16) %31, ptr noundef nonnull align 1 dereferenceable(7) @.str.183)
          to label %34 unwind label %74

34:                                               ; preds = %32
  %35 = invoke noundef nonnull align 8 dereferenceable(16) ptr @_ZN7testing15AssertionResultlsIPKcEERS0_RKT_(ptr noundef nonnull align 8 dereferenceable(16) %33, ptr noundef nonnull align 8 dereferenceable(8) %10)
          to label %36 unwind label %74

36:                                               ; preds = %34
  %37 = invoke noundef nonnull align 8 dereferenceable(16) ptr @_ZN7testing15AssertionResultlsIA2_cEERS0_RKT_(ptr noundef nonnull align 8 dereferenceable(16) %35, ptr noundef nonnull align 1 dereferenceable(2) @.str.184)
          to label %38 unwind label %74

38:                                               ; preds = %36
  %39 = load i8, ptr %37, align 8, !tbaa !4, !range !17, !noundef !18
  store i8 %39, ptr %0, align 8, !tbaa !4
  %40 = getelementptr inbounds nuw i8, ptr %37, i64 8
  %41 = load ptr, ptr %40, align 8, !tbaa !19
  %.not.i = icmp eq ptr %41, null
  br i1 %.not.i, label %61, label %42

42:                                               ; preds = %38
  %43 = invoke noalias noundef nonnull dereferenceable(32) ptr @_Znwm(i64 noundef 32) #56
          to label %.noexc unwind label %74

.noexc:                                           ; preds = %42
  %44 = getelementptr inbounds nuw i8, ptr %43, i64 16
  store ptr %44, ptr %43, align 8, !tbaa !20
  %45 = load ptr, ptr %41, align 8, !tbaa !23
  %46 = getelementptr inbounds nuw i8, ptr %41, i64 8
  %47 = load i64, ptr %46, align 8, !tbaa !26
  call void @llvm.lifetime.start.p0(i64 8, ptr nonnull %6) #57
  store i64 %47, ptr %6, align 8, !tbaa !27
  %48 = icmp ugt i64 %47, 15
  br i1 %48, label %.noexc.i.i, label %._crit_edge.i.i.i

.noexc.i.i:                                       ; preds = %.noexc
  %49 = invoke noundef ptr @_ZNSt7__cxx1112basic_stringIcSt11char_traitsIcESaIcEE9_M_createERmm(ptr noundef nonnull align 8 dereferenceable(32) %43, ptr noundef nonnull align 8 dereferenceable(8) %6, i64 noundef 0)
          to label %.noexc.i unwind label %59

.noexc.i:                                         ; preds = %.noexc.i.i
  store ptr %49, ptr %43, align 8, !tbaa !23
  %50 = load i64, ptr %6, align 8, !tbaa !27
  store i64 %50, ptr %44, align 8, !tbaa !28
  br label %._crit_edge.i.i.i

._crit_edge.i.i.i:                                ; preds = %.noexc.i, %.noexc
  %51 = phi ptr [ %49, %.noexc.i ], [ %44, %.noexc ]
  switch i64 %47, label %54 [
    i64 1, label %52
    i64 0, label %_ZNSt7__cxx1112basic_stringIcSt11char_traitsIcESaIcEEC2ERKS4_.exit.i
  ]

52:                                               ; preds = %._crit_edge.i.i.i
  %53 = load i8, ptr %45, align 1, !tbaa !28
  store i8 %53, ptr %51, align 1, !tbaa !28
  br label %_ZNSt7__cxx1112basic_stringIcSt11char_traitsIcESaIcEEC2ERKS4_.exit.i

54:                                               ; preds = %._crit_edge.i.i.i
  call void @llvm.memcpy.p0.p0.i64(ptr align 1 %51, ptr align 1 %45, i64 %47, i1 false)
  br label %_ZNSt7__cxx1112basic_stringIcSt11char_traitsIcESaIcEEC2ERKS4_.exit.i

_ZNSt7__cxx1112basic_stringIcSt11char_traitsIcESaIcEEC2ERKS4_.exit.i: ; preds = %54, %52, %._crit_edge.i.i.i
  %55 = load i64, ptr %6, align 8, !tbaa !27
  %56 = getelementptr inbounds nuw i8, ptr %43, i64 8
  store i64 %55, ptr %56, align 8, !tbaa !26
  %57 = load ptr, ptr %43, align 8, !tbaa !23
  %58 = getelementptr inbounds nuw i8, ptr %57, i64 %55
  store i8 0, ptr %58, align 1, !tbaa !28
  call void @llvm.lifetime.end.p0(i64 8, ptr nonnull %6) #57
  br label %61

59:                                               ; preds = %.noexc.i.i
  %60 = landingpad { ptr, i32 }
          cleanup
  call void @_ZdlPvm(ptr noundef nonnull %43, i64 noundef 32) #58
  br label %.body

61:                                               ; preds = %_ZNSt7__cxx1112basic_stringIcSt11char_traitsIcESaIcEEC2ERKS4_.exit.i, %38
  %62 = phi ptr [ %43, %_ZNSt7__cxx1112basic_stringIcSt11char_traitsIcESaIcEEC2ERKS4_.exit.i ], [ null, %38 ]
  %63 = getelementptr inbounds nuw i8, ptr %0, i64 8
  store ptr %62, ptr %63, align 8, !tbaa !19
  %64 = load ptr, ptr %20, align 8, !tbaa !19
  %.not.i.i = icmp eq ptr %64, null
  br i1 %.not.i.i, label %_ZN7testing15AssertionResultD2Ev.exit, label %65

65:                                               ; preds = %61
  %66 = load ptr, ptr %64, align 8, !tbaa !23
  %67 = getelementptr inbounds nuw i8, ptr %64, i64 16
  %68 = icmp eq ptr %66, %67
  br i1 %68, label %_ZNKSt7__cxx1112basic_stringIcSt11char_traitsIcESaIcEE11_M_is_localEv.exit.thread.i.i.i.i.i, label %_ZNKSt7__cxx1112basic_stringIcSt11char_traitsIcESaIcEE11_M_is_localEv.exit.i.i.i.i.i

_ZNKSt7__cxx1112basic_stringIcSt11char_traitsIcESaIcEE11_M_is_localEv.exit.thread.i.i.i.i.i: ; preds = %65
  %69 = getelementptr inbounds nuw i8, ptr %64, i64 8
  %70 = load i64, ptr %69, align 8, !tbaa !26
  %71 = icmp ult i64 %70, 16
  call void @llvm.assume(i1 %71)
  br label %_ZNKSt14default_deleteINSt7__cxx1112basic_stringIcSt11char_traitsIcESaIcEEEEclEPS5_.exit.i.i

_ZNKSt7__cxx1112basic_stringIcSt11char_traitsIcESaIcEE11_M_is_localEv.exit.i.i.i.i.i: ; preds = %65
  %72 = load i64, ptr %67, align 8, !tbaa !28
  %73 = add i64 %72, 1
  call void @_ZdlPvm(ptr noundef %66, i64 noundef %73) #58
  br label %_ZNKSt14default_deleteINSt7__cxx1112basic_stringIcSt11char_traitsIcESaIcEEEEclEPS5_.exit.i.i

_ZNKSt14default_deleteINSt7__cxx1112basic_stringIcSt11char_traitsIcESaIcEEEEclEPS5_.exit.i.i: ; preds = %_ZNKSt7__cxx1112basic_stringIcSt11char_traitsIcESaIcEE11_M_is_localEv.exit.i.i.i.i.i, %_ZNKSt7__cxx1112basic_stringIcSt11char_traitsIcESaIcEE11_M_is_localEv.exit.thread.i.i.i.i.i
  call void @_ZdlPvm(ptr noundef nonnull %64, i64 noundef 32) #58
  br label %_ZN7testing15AssertionResultD2Ev.exit

_ZN7testing15AssertionResultD2Ev.exit:            ; preds = %61, %_ZNKSt14default_deleteINSt7__cxx1112basic_stringIcSt11char_traitsIcESaIcEEEEclEPS5_.exit.i.i
  call void @llvm.lifetime.end.p0(i64 16, ptr nonnull %11) #57
  br label %76

74:                                               ; preds = %42, %36, %34, %32, %30, %28, %26, %24, %22, %19
  %75 = landingpad { ptr, i32 }
          cleanup
  br label %.body

.body:                                            ; preds = %59, %74
  %eh.lpad-body = phi { ptr, i32 } [ %75, %74 ], [ %60, %59 ]
  call void @_ZN7testing15AssertionResultD2Ev(ptr noundef nonnull align 8 dereferenceable(16) %11) #57
  call void @llvm.lifetime.end.p0(i64 16, ptr nonnull %11) #57
  resume { ptr, i32 } %eh.lpad-body

76:                                               ; preds = %_ZN7testing15AssertionResultD2Ev.exit, %17
  ret void
}